target datalayout = "e-m:e-p270:32:32-p271:32:32-p272:64:64-i64:64-i128:128-f80:128-n8:16:32:64-S128"
target triple = "x86_64-pc-linux-gnu"

%struct.Vec_Wec_t_ = type { i32, i32, ptr }
%struct.Vec_Int_t_ = type { i32, i32, ptr }

@.str.1 = private unnamed_addr constant [4 x i8] c"%s \00", align 1
@.str.2 = private unnamed_addr constant [10 x i8] c"[unknown]\00", align 1
@.str.3 = private unnamed_addr constant [2 x i8] c"\0A\00", align 1

; Function Attrs: inlinehint nounwind uwtable
define internal i32 @Vec_IntEntry(ptr noundef %0, i32 noundef %1) #2 {
  %3 = alloca ptr, align 8
  %4 = alloca i32, align 4
  store ptr %0, ptr %3, align 8, !tbaa !14
  store i32 %1, ptr %4, align 4, !tbaa !10
  %5 = load ptr, ptr %3, align 8, !tbaa !14
  %6 = getelementptr inbounds nuw %struct.Vec_Int_t_, ptr %5, i32 0, i32 2
  %7 = load ptr, ptr %6, align 8, !tbaa !25
  %8 = load i32, ptr %4, align 4, !tbaa !10
  %9 = sext i32 %8 to i64
  %10 = getelementptr inbounds i32, ptr %7, i64 %9
  %11 = load i32, ptr %10, align 4, !tbaa !10
  ret i32 %11
}

; Function Attrs: inlinehint nounwind uwtable
define internal i32 @Vec_IntSize(ptr noundef %0) #2 {
  %2 = alloca ptr, align 8
  store ptr %0, ptr %2, align 8, !tbaa !14
  %3 = load ptr, ptr %2, align 8, !tbaa !14
  %4 = getelementptr inbounds nuw %struct.Vec_Int_t_, ptr %3, i32 0, i32 1
  %5 = load i32, ptr %4, align 4, !tbaa !22
  ret i32 %5
}

; Function Attrs: inlinehint nounwind uwtable
define internal ptr @Vec_WecEntry(ptr noundef %0, i32 noundef %1) #2 {
  %3 = alloca ptr, align 8
  %4 = alloca i32, align 4
  store ptr %0, ptr %3, align 8, !tbaa !12
  store i32 %1, ptr %4, align 4, !tbaa !10
  %5 = load ptr, ptr %3, align 8, !tbaa !12
  %6 = getelementptr inbounds nuw %struct.Vec_Wec_t_, ptr %5, i32 0, i32 2
  %7 = load ptr, ptr %6, align 8, !tbaa !21
  %8 = load i32, ptr %4, align 4, !tbaa !10
  %9 = sext i32 %8 to i64
  %10 = getelementptr inbounds %struct.Vec_Int_t_, ptr %7, i64 %9
  ret ptr %10
}

; Function Attrs: inlinehint nounwind uwtable
define internal i32 @Vec_WecSize(ptr noundef %0) #2 {
  %2 = alloca ptr, align 8
  store ptr %0, ptr %2, align 8, !tbaa !12
  %3 = load ptr, ptr %2, align 8, !tbaa !12
  %4 = getelementptr inbounds nuw %struct.Vec_Wec_t_, ptr %3, i32 0, i32 1
  %5 = load i32, ptr %4, align 4, !tbaa !19
  ret i32 %5
}

; Function Attrs: nounwind uwtable
define void @Wln_PrintGuidance(ptr noundef %0, ptr noundef %1) #0 {
  %3 = alloca ptr, align 8
  %4 = alloca ptr, align 8
  %5 = alloca ptr, align 8
  %6 = alloca i32, align 4
  %7 = alloca i32, align 4
  %8 = alloca i32, align 4
  store ptr %0, ptr %3, align 8, !tbaa !12
  store ptr %1, ptr %4, align 8, !tbaa !8
  call void @llvm.lifetime.start.p0(i64 8, ptr %5) #10
  call void @llvm.lifetime.start.p0(i64 4, ptr %6) #10
  call void @llvm.lifetime.start.p0(i64 4, ptr %7) #10
  call void @llvm.lifetime.start.p0(i64 4, ptr %8) #10
  store i32 0, ptr %6, align 4, !tbaa !10
  br label %9

9:                                                ; preds = %48, %2
  %10 = load i32, ptr %6, align 4, !tbaa !10
  %11 = load ptr, ptr %3, align 8, !tbaa !12
  %12 = call i32 @Vec_WecSize(ptr noundef %11)
  %13 = icmp slt i32 %10, %12
  br i1 %13, label %14, label %18

14:                                               ; preds = %9
  %15 = load ptr, ptr %3, align 8, !tbaa !12
  %16 = load i32, ptr %6, align 4, !tbaa !10
  %17 = call ptr @Vec_WecEntry(ptr noundef %15, i32 noundef %16)
  store ptr %17, ptr %5, align 8, !tbaa !14
  br label %18

18:                                               ; preds = %14, %9
  %19 = phi i1 [ false, %9 ], [ true, %14 ]
  br i1 %19, label %20, label %51

20:                                               ; preds = %18
  store i32 0, ptr %7, align 4, !tbaa !10
  br label %21

21:                                               ; preds = %43, %20
  %22 = load i32, ptr %7, align 4, !tbaa !10
  %23 = load ptr, ptr %5, align 8, !tbaa !14
  %24 = call i32 @Vec_IntSize(ptr noundef %23)
  %25 = icmp slt i32 %22, %24
  br i1 %25, label %26, label %30

26:                                               ; preds = %21
  %27 = load ptr, ptr %5, align 8, !tbaa !14
  %28 = load i32, ptr %7, align 4, !tbaa !10
  %29 = call i32 @Vec_IntEntry(ptr noundef %27, i32 noundef %28)
  store i32 %29, ptr %8, align 4, !tbaa !10
  br label %30

30:                                               ; preds = %26, %21
  %31 = phi i1 [ false, %21 ], [ true, %26 ]
  br i1 %31, label %32, label %46

32:                                               ; preds = %30
  %33 = load i32, ptr %8, align 4, !tbaa !10
  %34 = icmp sge i32 %33, 0
  br i1 %34, label %35, label %39

35:                                               ; preds = %32
  %36 = load ptr, ptr %4, align 8, !tbaa !8
  %37 = load i32, ptr %8, align 4, !tbaa !10
  %38 = call ptr @Abc_NamStr(ptr noundef %36, i32 noundef %37)
  br label %40

39:                                               ; preds = %32
  br label %40

40:                                               ; preds = %39, %35
  %41 = phi ptr [ %38, %35 ], [ @.str.2, %39 ]
  %42 = call i32 (ptr, ...) @printf(ptr noundef @.str.1, ptr noundef %41)
  br label %43

43:                                               ; preds = %40
  %44 = load i32, ptr %7, align 4, !tbaa !10
  %45 = add nsw i32 %44, 1
  store i32 %45, ptr %7, align 4, !tbaa !10
  br label %21, !llvm.loop !16

46:                                               ; preds = %30
  %47 = call i32 (ptr, ...) @printf(ptr noundef @.str.3)
  br label %48

48:                                               ; preds = %46
  %49 = load i32, ptr %6, align 4, !tbaa !10
  %50 = add nsw i32 %49, 1
  store i32 %50, ptr %6, align 4, !tbaa !10
  br label %9, !llvm.loop !18

51:                                               ; preds = %18
  call void @llvm.lifetime.end.p0(i64 4, ptr %8) #10
  call void @llvm.lifetime.end.p0(i64 4, ptr %7) #10
  call void @llvm.lifetime.end.p0(i64 4, ptr %6) #10
  call void @llvm.lifetime.end.p0(i64 8, ptr %5) #10
  ret void
}