; Function Attrs: nounwind uwtable
define void @Wln_PrintGuidance(ptr noundef readonly captures(none) %0, ptr noundef %1) local_unnamed_addr #0 {
  %3 = getelementptr i8, ptr %0, i64 4
  %.val21 = load i32, ptr %3, align 4, !tbaa !3
  %4 = icmp sgt i32 %.val21, 0
  br i1 %4, label %.lr.ph23, label %.critedge

.lr.ph23:                                         ; preds = %2
  %5 = getelementptr i8, ptr %0, i64 8
  br label %6

6:                                                ; preds = %.lr.ph23, %.critedge2
  %indvars.iv25 = phi i64 [ 0, %.lr.ph23 ], [ %indvars.iv.next26, %.critedge2 ]
  %.val16 = load ptr, ptr %5, align 8, !tbaa !10
  %7 = getelementptr inbounds nuw %struct.Vec_Int_t_, ptr %.val16, i64 %indvars.iv25
  %8 = getelementptr i8, ptr %7, i64 4
  %.val1719 = load i32, ptr %8, align 4, !tbaa !11
  %9 = icmp sgt i32 %.val1719, 0
  br i1 %9, label %.lr.ph, label %.critedge2

.lr.ph:                                           ; preds = %6
  %10 = getelementptr i8, ptr %7, i64 8
  br label %11

11:                                               ; preds = %.lr.ph, %17
  %indvars.iv = phi i64 [ 0, %.lr.ph ], [ %indvars.iv.next, %17 ]
  %.val18 = load ptr, ptr %10, align 8, !tbaa !14
  %12 = getelementptr inbounds nuw i32, ptr %.val18, i64 %indvars.iv
  %13 = load i32, ptr %12, align 4, !tbaa !15
  %14 = icmp sgt i32 %13, -1
  br i1 %14, label %15, label %17

15:                                               ; preds = %11
  %16 = tail call ptr @Abc_NamStr(ptr noundef %1, i32 noundef %13) #13
  br label %17

17:                                               ; preds = %11, %15
  %18 = phi ptr [ %16, %15 ], [ @.str.2, %11 ]
  %19 = tail call i32 (ptr, ...) @printf(ptr noundef nonnull dereferenceable(1) @.str.1, ptr noundef %18)
  %indvars.iv.next = add nuw nsw i64 %indvars.iv, 1
  %.val17 = load i32, ptr %8, align 4, !tbaa !11
  %20 = sext i32 %.val17 to i64
  %21 = icmp slt i64 %indvars.iv.next, %20
  br i1 %21, label %11, label %.critedge2, !llvm.loop !16

.critedge2:                                       ; preds = %17, %6
  %putchar = tail call i32 @putchar(i32 10)
  %indvars.iv.next26 = add nuw nsw i64 %indvars.iv25, 1
  %.val = load i32, ptr %3, align 4, !tbaa !3
  %22 = sext i32 %.val to i64
  %23 = icmp slt i64 %indvars.iv.next26, %22
  br i1 %23, label %6, label %.critedge, !llvm.loop !18

.critedge:                                        ; preds = %.critedge2, %2
  ret void
}